target datalayout = "e-m:e-p270:32:32-p271:32:32-p272:64:64-i64:64-i128:128-f80:128-n8:16:32:64-S128"
target triple = "x86_64-pc-linux-gnu"

%struct.strbuf = type { i64, i64, ptr }
%struct.__va_list_tag = type { i32, i32, ptr, ptr }

@the_repository = external global ptr, align 8
@__const.git_pathdup.path = private unnamed_addr constant %struct.strbuf { i64 0, i64 0, ptr @strbuf_slopbuf }, align 8

; Function Attrs: inlinehint nounwind uwtable
define internal ptr @git_pathdup(ptr noundef %0, ...) #5 {
  %2 = alloca ptr, align 8
  %3 = alloca %struct.strbuf, align 8
  %4 = alloca [1 x %struct.__va_list_tag], align 16
  store ptr %0, ptr %2, align 8, !tbaa !11
  call void @llvm.lifetime.start.p0(i64 24, ptr %3) #14
  call void @llvm.memcpy.p0.p0.i64(ptr align 8 %3, ptr align 8 @__const.git_pathdup.path, i64 24, i1 false)
  call void @llvm.lifetime.start.p0(i64 24, ptr %4) #14
  %5 = getelementptr inbounds [1 x %struct.__va_list_tag], ptr %4, i64 0, i64 0
  call void @llvm.va_start.p0(ptr %5)
  %6 = load ptr, ptr @the_repository, align 8, !tbaa !13
  %7 = load ptr, ptr %2, align 8, !tbaa !11
  %8 = getelementptr inbounds [1 x %struct.__va_list_tag], ptr %4, i64 0, i64 0
  call void @repo_git_pathv(ptr noundef %6, ptr noundef null, ptr noundef %3, ptr noundef %7, ptr noundef %8)
  %9 = getelementptr inbounds [1 x %struct.__va_list_tag], ptr %4, i64 0, i64 0
  call void @llvm.va_end.p0(ptr %9)
  %10 = call ptr @strbuf_detach(ptr noundef %3, ptr noundef null)
  call void @llvm.lifetime.end.p0(i64 24, ptr %4) #14
  call void @llvm.lifetime.end.p0(i64 24, ptr %3) #14
  ret ptr %10
}